; Function Attrs: mustprogress uwtable
define internal fastcc noundef zeroext i1 @_ZN5arrow12_GLOBAL__N_117TypeEqualsVisitor13MetadataEqualERKNS_5FieldES4_(ptr noundef nonnull align 8 dereferenceable(96) %0, ptr noundef nonnull align 8 dereferenceable(96) %1) unnamed_addr #1 align 2 personality ptr @__gxx_personality_v0 {
  %3 = alloca %"class.std::shared_ptr.59", align 8
  %4 = alloca %"class.std::shared_ptr.59", align 8
  %5 = tail call noundef zeroext i1 @_ZNK5arrow5Field11HasMetadataEv(ptr noundef nonnull align 8 dereferenceable(96) %0)
  br i1 %5, label %6, label %85

6:                                                ; preds = %2
  %7 = tail call noundef zeroext i1 @_ZNK5arrow5Field11HasMetadataEv(ptr noundef nonnull align 8 dereferenceable(96) %1)
  br i1 %7, label %8, label %85

8:                                                ; preds = %6
  call void @llvm.lifetime.start.p0(i64 16, ptr nonnull %3) #25
  tail call void @llvm.experimental.noalias.scope.decl(metadata !1091)
  %9 = getelementptr inbounds nuw i8, ptr %0, i64 80
  %10 = load ptr, ptr %9, align 8, !tbaa !1094, !noalias !1091
  store ptr %10, ptr %3, align 8, !tbaa !1094, !alias.scope !1091
  %11 = getelementptr inbounds nuw i8, ptr %3, i64 8
  %12 = getelementptr inbounds nuw i8, ptr %0, i64 88
  %13 = load ptr, ptr %12, align 8, !tbaa !284, !noalias !1091
  store ptr %13, ptr %11, align 8, !tbaa !284, !alias.scope !1091
  %.not.i.i.i.i = icmp eq ptr %13, null
  br i1 %.not.i.i.i.i, label %_ZNK5arrow5Field8metadataEv.exit, label %14

14:                                               ; preds = %8
  %15 = getelementptr inbounds nuw i8, ptr %13, i64 8
  %16 = load i8, ptr @__libc_single_threaded, align 1, !tbaa !275, !noalias !1091
  %.not.i.i.i.i.i = icmp eq i8 %16, 0
  br i1 %.not.i.i.i.i.i, label %20, label %17

17:                                               ; preds = %14
  %18 = load i32, ptr %15, align 4, !tbaa !285, !noalias !1091
  %19 = add nsw i32 %18, 1
  store i32 %19, ptr %15, align 4, !tbaa !285, !noalias !1091
  br label %_ZNK5arrow5Field8metadataEv.exit

20:                                               ; preds = %14
  %21 = atomicrmw volatile add ptr %15, i32 1 acq_rel, align 4, !noalias !1091
  %.pre = load ptr, ptr %3, align 8, !tbaa !1094
  br label %_ZNK5arrow5Field8metadataEv.exit

_ZNK5arrow5Field8metadataEv.exit:                 ; preds = %8, %17, %20
  %22 = phi ptr [ %10, %8 ], [ %10, %17 ], [ %.pre, %20 ]
  call void @llvm.lifetime.start.p0(i64 16, ptr nonnull %4) #25
  tail call void @llvm.experimental.noalias.scope.decl(metadata !1095)
  %23 = getelementptr inbounds nuw i8, ptr %1, i64 80
  %24 = load ptr, ptr %23, align 8, !tbaa !1094, !noalias !1095
  store ptr %24, ptr %4, align 8, !tbaa !1094, !alias.scope !1095
  %25 = getelementptr inbounds nuw i8, ptr %4, i64 8
  %26 = getelementptr inbounds nuw i8, ptr %1, i64 88
  %27 = load ptr, ptr %26, align 8, !tbaa !284, !noalias !1095
  store ptr %27, ptr %25, align 8, !tbaa !284, !alias.scope !1095
  %.not.i.i.i.i8 = icmp eq ptr %27, null
  br i1 %.not.i.i.i.i8, label %_ZNK5arrow5Field8metadataEv.exit10, label %28

28:                                               ; preds = %_ZNK5arrow5Field8metadataEv.exit
  %29 = getelementptr inbounds nuw i8, ptr %27, i64 8
  %30 = load i8, ptr @__libc_single_threaded, align 1, !tbaa !275, !noalias !1095
  %.not.i.i.i.i.i9 = icmp eq i8 %30, 0
  br i1 %.not.i.i.i.i.i9, label %34, label %31

31:                                               ; preds = %28
  %32 = load i32, ptr %29, align 4, !tbaa !285, !noalias !1095
  %33 = add nsw i32 %32, 1
  store i32 %33, ptr %29, align 4, !tbaa !285, !noalias !1095
  br label %_ZNK5arrow5Field8metadataEv.exit10

34:                                               ; preds = %28
  %35 = atomicrmw volatile add ptr %29, i32 1 acq_rel, align 4, !noalias !1095
  %.pre1 = load ptr, ptr %4, align 8, !tbaa !1094
  br label %_ZNK5arrow5Field8metadataEv.exit10

_ZNK5arrow5Field8metadataEv.exit10:               ; preds = %_ZNK5arrow5Field8metadataEv.exit, %31, %34
  %36 = phi ptr [ %24, %_ZNK5arrow5Field8metadataEv.exit ], [ %24, %31 ], [ %.pre1, %34 ]
  %37 = invoke noundef zeroext i1 @_ZNK5arrow16KeyValueMetadata6EqualsERKS0_(ptr noundef nonnull align 8 dereferenceable(48) %22, ptr noundef nonnull align 8 dereferenceable(48) %36)
          to label %38 unwind label %83

38:                                               ; preds = %_ZNK5arrow5Field8metadataEv.exit10
  %39 = load ptr, ptr %25, align 8, !tbaa !284
  %.not.i.i = icmp eq ptr %39, null
  br i1 %.not.i.i, label %_ZNSt12__shared_ptrIKN5arrow16KeyValueMetadataELN9__gnu_cxx12_Lock_policyE2EED2Ev.exit, label %40

40:                                               ; preds = %38
  %41 = getelementptr inbounds nuw i8, ptr %39, i64 8
  %42 = load atomic i64, ptr %41 acquire, align 8
  %43 = icmp eq i64 %42, 4294967297
  %44 = trunc i64 %42 to i32
  br i1 %43, label %45, label %53

45:                                               ; preds = %40
  store i32 0, ptr %41, align 8, !tbaa !286
  %46 = getelementptr inbounds nuw i8, ptr %39, i64 12
  store i32 0, ptr %46, align 4, !tbaa !288
  %47 = load ptr, ptr %39, align 8, !tbaa !271
  %48 = getelementptr inbounds nuw i8, ptr %47, i64 16
  %49 = load ptr, ptr %48, align 8
  tail call void %49(ptr noundef nonnull align 8 dereferenceable(16) %39) #25
  %50 = load ptr, ptr %39, align 8, !tbaa !271
  %51 = getelementptr inbounds nuw i8, ptr %50, i64 24
  %52 = load ptr, ptr %51, align 8
  tail call void %52(ptr noundef nonnull align 8 dereferenceable(16) %39) #25
  br label %_ZNSt12__shared_ptrIKN5arrow16KeyValueMetadataELN9__gnu_cxx12_Lock_policyE2EED2Ev.exit

53:                                               ; preds = %40
  %54 = load i8, ptr @__libc_single_threaded, align 1, !tbaa !275
  %.not.i.i.i = icmp eq i8 %54, 0
  br i1 %.not.i.i.i, label %57, label %55

55:                                               ; preds = %53
  %56 = add nsw i32 %44, -1
  store i32 %56, ptr %41, align 4, !tbaa !285
  br label %_ZN9__gnu_cxx27__exchange_and_add_dispatchEPii.exit.i.i.i

57:                                               ; preds = %53
  %58 = atomicrmw volatile add ptr %41, i32 -1 acq_rel, align 4
  br label %_ZN9__gnu_cxx27__exchange_and_add_dispatchEPii.exit.i.i.i

_ZN9__gnu_cxx27__exchange_and_add_dispatchEPii.exit.i.i.i: ; preds = %57, %55
  %.0.i.i.i.i = phi i32 [ %44, %55 ], [ %58, %57 ]
  %59 = icmp eq i32 %.0.i.i.i.i, 1
  br i1 %59, label %60, label %_ZNSt12__shared_ptrIKN5arrow16KeyValueMetadataELN9__gnu_cxx12_Lock_policyE2EED2Ev.exit, !prof !289

60:                                               ; preds = %_ZN9__gnu_cxx27__exchange_and_add_dispatchEPii.exit.i.i.i
  tail call void @_ZNSt16_Sp_counted_baseILN9__gnu_cxx12_Lock_policyE2EE24_M_release_last_use_coldEv(ptr noundef nonnull align 8 dereferenceable(16) %39) #25
  br label %_ZNSt12__shared_ptrIKN5arrow16KeyValueMetadataELN9__gnu_cxx12_Lock_policyE2EED2Ev.exit

_ZNSt12__shared_ptrIKN5arrow16KeyValueMetadataELN9__gnu_cxx12_Lock_policyE2EED2Ev.exit: ; preds = %38, %45, %_ZN9__gnu_cxx27__exchange_and_add_dispatchEPii.exit.i.i.i, %60
  call void @llvm.lifetime.end.p0(i64 16, ptr nonnull %4) #25
  %61 = load ptr, ptr %11, align 8, !tbaa !284
  %.not.i.i11 = icmp eq ptr %61, null
  br i1 %.not.i.i11, label %_ZNSt12__shared_ptrIKN5arrow16KeyValueMetadataELN9__gnu_cxx12_Lock_policyE2EED2Ev.exit15, label %62

62:                                               ; preds = %_ZNSt12__shared_ptrIKN5arrow16KeyValueMetadataELN9__gnu_cxx12_Lock_policyE2EED2Ev.exit
  %63 = getelementptr inbounds nuw i8, ptr %61, i64 8
  %64 = load atomic i64, ptr %63 acquire, align 8
  %65 = icmp eq i64 %64, 4294967297
  %66 = trunc i64 %64 to i32
  br i1 %65, label %67, label %75

67:                                               ; preds = %62
  store i32 0, ptr %63, align 8, !tbaa !286
  %68 = getelementptr inbounds nuw i8, ptr %61, i64 12
  store i32 0, ptr %68, align 4, !tbaa !288
  %69 = load ptr, ptr %61, align 8, !tbaa !271
  %70 = getelementptr inbounds nuw i8, ptr %69, i64 16
  %71 = load ptr, ptr %70, align 8
  tail call void %71(ptr noundef nonnull align 8 dereferenceable(16) %61) #25
  %72 = load ptr, ptr %61, align 8, !tbaa !271
  %73 = getelementptr inbounds nuw i8, ptr %72, i64 24
  %74 = load ptr, ptr %73, align 8
  tail call void %74(ptr noundef nonnull align 8 dereferenceable(16) %61) #25
  br label %_ZNSt12__shared_ptrIKN5arrow16KeyValueMetadataELN9__gnu_cxx12_Lock_policyE2EED2Ev.exit15

75:                                               ; preds = %62
  %76 = load i8, ptr @__libc_single_threaded, align 1, !tbaa !275
  %.not.i.i.i12 = icmp eq i8 %76, 0
  br i1 %.not.i.i.i12, label %79, label %77

77:                                               ; preds = %75
  %78 = add nsw i32 %66, -1
  store i32 %78, ptr %63, align 4, !tbaa !285
  br label %_ZN9__gnu_cxx27__exchange_and_add_dispatchEPii.exit.i.i.i13

79:                                               ; preds = %75
  %80 = atomicrmw volatile add ptr %63, i32 -1 acq_rel, align 4
  br label %_ZN9__gnu_cxx27__exchange_and_add_dispatchEPii.exit.i.i.i13

_ZN9__gnu_cxx27__exchange_and_add_dispatchEPii.exit.i.i.i13: ; preds = %79, %77
  %.0.i.i.i.i14 = phi i32 [ %66, %77 ], [ %80, %79 ]
  %81 = icmp eq i32 %.0.i.i.i.i14, 1
  br i1 %81, label %82, label %_ZNSt12__shared_ptrIKN5arrow16KeyValueMetadataELN9__gnu_cxx12_Lock_policyE2EED2Ev.exit15, !prof !289

82:                                               ; preds = %_ZN9__gnu_cxx27__exchange_and_add_dispatchEPii.exit.i.i.i13
  tail call void @_ZNSt16_Sp_counted_baseILN9__gnu_cxx12_Lock_policyE2EE24_M_release_last_use_coldEv(ptr noundef nonnull align 8 dereferenceable(16) %61) #25
  br label %_ZNSt12__shared_ptrIKN5arrow16KeyValueMetadataELN9__gnu_cxx12_Lock_policyE2EED2Ev.exit15

_ZNSt12__shared_ptrIKN5arrow16KeyValueMetadataELN9__gnu_cxx12_Lock_policyE2EED2Ev.exit15: ; preds = %_ZNSt12__shared_ptrIKN5arrow16KeyValueMetadataELN9__gnu_cxx12_Lock_policyE2EED2Ev.exit, %67, %_ZN9__gnu_cxx27__exchange_and_add_dispatchEPii.exit.i.i.i13, %82
  call void @llvm.lifetime.end.p0(i64 16, ptr nonnull %3) #25
  br label %90

83:                                               ; preds = %_ZNK5arrow5Field8metadataEv.exit10
  %84 = landingpad { ptr, i32 }
          cleanup
  call void @_ZNSt12__shared_ptrIKN5arrow16KeyValueMetadataELN9__gnu_cxx12_Lock_policyE2EED2Ev(ptr noundef nonnull align 8 dereferenceable(16) %4) #25
  call void @llvm.lifetime.end.p0(i64 16, ptr nonnull %4) #25
  call void @_ZNSt12__shared_ptrIKN5arrow16KeyValueMetadataELN9__gnu_cxx12_Lock_policyE2EED2Ev(ptr noundef nonnull align 8 dereferenceable(16) %3) #25
  call void @llvm.lifetime.end.p0(i64 16, ptr nonnull %3) #25
  resume { ptr, i32 } %84

85:                                               ; preds = %6, %2
  %86 = tail call noundef zeroext i1 @_ZNK5arrow5Field11HasMetadataEv(ptr noundef nonnull align 8 dereferenceable(96) %0)
  br i1 %86, label %90, label %87

87:                                               ; preds = %85
  %88 = tail call noundef zeroext i1 @_ZNK5arrow5Field11HasMetadataEv(ptr noundef nonnull align 8 dereferenceable(96) %1)
  %89 = xor i1 %88, true
  br label %90

90:                                               ; preds = %85, %87, %_ZNSt12__shared_ptrIKN5arrow16KeyValueMetadataELN9__gnu_cxx12_Lock_policyE2EED2Ev.exit15
  %.0 = phi i1 [ %37, %_ZNSt12__shared_ptrIKN5arrow16KeyValueMetadataELN9__gnu_cxx12_Lock_policyE2EED2Ev.exit15 ], [ false, %85 ], [ %89, %87 ]
  ret i1 %.0
}